target datalayout = "e-m:e-p270:32:32-p271:32:32-p272:64:64-i64:64-i128:128-f80:128-n8:16:32:64-S128"
target triple = "x86_64-pc-linux-gnu"

%"class.cv::cuda::GpuMat" = type { i32, i32, i32, i64, ptr, ptr, ptr, ptr, ptr }
%"class.cv::Size_" = type { i32, i32 }
%"class.cv::Point_" = type { i32, i32 }

; Function Attrs: mustprogress uwtable
define void @_ZN2cv4cuda6GpuMat20updateContinuityFlagEv(ptr noundef nonnull align 8 dereferenceable(64) %0) #0 align 2 {
  %2 = alloca ptr, align 8
  %3 = alloca [2 x i32], align 4
  %4 = alloca [2 x i64], align 16
  store ptr %0, ptr %2, align 8, !tbaa !3
  %5 = load ptr, ptr %2, align 8
  call void @llvm.lifetime.start.p0(i64 8, ptr %3) #13
  %6 = getelementptr inbounds nuw %"class.cv::cuda::GpuMat", ptr %5, i32 0, i32 1
  %7 = load i32, ptr %6, align 4, !tbaa !8
  store i32 %7, ptr %3, align 4, !tbaa !15
  %8 = getelementptr inbounds i32, ptr %3, i64 1
  %9 = getelementptr inbounds nuw %"class.cv::cuda::GpuMat", ptr %5, i32 0, i32 2
  %10 = load i32, ptr %9, align 8, !tbaa !16
  store i32 %10, ptr %8, align 4, !tbaa !15
  call void @llvm.lifetime.start.p0(i64 16, ptr %4) #13
  %11 = getelementptr inbounds nuw %"class.cv::cuda::GpuMat", ptr %5, i32 0, i32 3
  %12 = load i64, ptr %11, align 8, !tbaa !17
  store i64 %12, ptr %4, align 8, !tbaa !18
  %13 = getelementptr inbounds i64, ptr %4, i64 1
  %14 = call noundef i64 @_ZNK2cv4cuda6GpuMat8elemSizeEv(ptr noundef nonnull align 8 dereferenceable(64) %5)
  store i64 %14, ptr %13, align 8, !tbaa !18
  %15 = getelementptr inbounds nuw %"class.cv::cuda::GpuMat", ptr %5, i32 0, i32 0
  %16 = load i32, ptr %15, align 8, !tbaa !19
  %17 = getelementptr inbounds [2 x i32], ptr %3, i64 0, i64 0
  %18 = getelementptr inbounds [2 x i64], ptr %4, i64 0, i64 0
  %19 = call noundef i32 @_ZN2cv20updateContinuityFlagEiiPKiPKm(i32 noundef %16, i32 noundef 2, ptr noundef %17, ptr noundef %18)
  %20 = getelementptr inbounds nuw %"class.cv::cuda::GpuMat", ptr %5, i32 0, i32 0
  store i32 %19, ptr %20, align 8, !tbaa !19
  call void @llvm.lifetime.end.p0(i64 16, ptr %4) #13
  call void @llvm.lifetime.end.p0(i64 8, ptr %3) #13
  ret void
}

; Function Attrs: inlinehint mustprogress nounwind uwtable
define linkonce_odr noundef nonnull align 4 dereferenceable(4) ptr @_ZSt3minIiERKT_S2_S2_(ptr noundef nonnull align 4 dereferenceable(4) %0, ptr noundef nonnull align 4 dereferenceable(4) %1) #2 comdat {
  %3 = alloca ptr, align 8
  %4 = alloca ptr, align 8
  %5 = alloca ptr, align 8
  store ptr %0, ptr %4, align 8, !tbaa !51
  store ptr %1, ptr %5, align 8, !tbaa !51
  %6 = load ptr, ptr %5, align 8, !tbaa !51
  %7 = load i32, ptr %6, align 4, !tbaa !15
  %8 = load ptr, ptr %4, align 8, !tbaa !51
  %9 = load i32, ptr %8, align 4, !tbaa !15
  %10 = icmp slt i32 %7, %9
  br i1 %10, label %11, label %13

11:                                               ; preds = %2
  %12 = load ptr, ptr %5, align 8, !tbaa !51
  store ptr %12, ptr %3, align 8
  br label %15

13:                                               ; preds = %2
  %14 = load ptr, ptr %4, align 8, !tbaa !51
  store ptr %14, ptr %3, align 8
  br label %15

15:                                               ; preds = %13, %11
  %16 = load ptr, ptr %3, align 8
  ret ptr %16
}

; Function Attrs: inlinehint mustprogress nounwind uwtable
define linkonce_odr noundef nonnull align 4 dereferenceable(4) ptr @_ZSt3maxIiERKT_S2_S2_(ptr noundef nonnull align 4 dereferenceable(4) %0, ptr noundef nonnull align 4 dereferenceable(4) %1) #2 comdat {
  %3 = alloca ptr, align 8
  %4 = alloca ptr, align 8
  %5 = alloca ptr, align 8
  store ptr %0, ptr %4, align 8, !tbaa !51
  store ptr %1, ptr %5, align 8, !tbaa !51
  %6 = load ptr, ptr %4, align 8, !tbaa !51
  %7 = load i32, ptr %6, align 4, !tbaa !15
  %8 = load ptr, ptr %5, align 8, !tbaa !51
  %9 = load i32, ptr %8, align 4, !tbaa !15
  %10 = icmp slt i32 %7, %9
  br i1 %10, label %11, label %13

11:                                               ; preds = %2
  %12 = load ptr, ptr %5, align 8, !tbaa !51
  store ptr %12, ptr %3, align 8
  br label %15

13:                                               ; preds = %2
  %14 = load ptr, ptr %4, align 8, !tbaa !51
  store ptr %14, ptr %3, align 8
  br label %15

15:                                               ; preds = %13, %11
  %16 = load ptr, ptr %3, align 8
  ret ptr %16
}

; Function Attrs: inlinehint mustprogress nounwind uwtable
define linkonce_odr hidden noundef i64 @_ZNK2cv4cuda6GpuMat8elemSizeEv(ptr noundef nonnull align 8 dereferenceable(64) %0) #2 comdat align 2 {
  %2 = alloca ptr, align 8
  store ptr %0, ptr %2, align 8, !tbaa !3
  %3 = load ptr, ptr %2, align 8
  %4 = getelementptr inbounds nuw %"class.cv::cuda::GpuMat", ptr %3, i32 0, i32 0
  %5 = load i32, ptr %4, align 8, !tbaa !19
  %6 = and i32 %5, 4088
  %7 = ashr i32 %6, 3
  %8 = add nsw i32 %7, 1
  %9 = getelementptr inbounds nuw %"class.cv::cuda::GpuMat", ptr %3, i32 0, i32 0
  %10 = load i32, ptr %9, align 8, !tbaa !19
  %11 = and i32 %10, 7
  %12 = mul nsw i32 %11, 4
  %13 = ashr i32 675553809, %12
  %14 = and i32 %13, 15
  %15 = mul nsw i32 %8, %14
  %16 = sext i32 %15 to i64
  ret i64 %16
}

; Function Attrs: mustprogress uwtable
define void @_ZNK2cv4cuda6GpuMat9locateROIERNS_5Size_IiEERNS_6Point_IiEE(ptr noundef nonnull align 8 dereferenceable(64) %0, ptr noundef nonnull align 4 dereferenceable(8) %1, ptr noundef nonnull align 4 dereferenceable(8) %2) #0 align 2 {
  %4 = alloca ptr, align 8
  %5 = alloca ptr, align 8
  %6 = alloca ptr, align 8
  %7 = alloca i64, align 8
  %8 = alloca i64, align 8
  %9 = alloca i64, align 8
  %10 = alloca i64, align 8
  %11 = alloca i32, align 4
  %12 = alloca i32, align 4
  %13 = alloca i32, align 4
  %14 = alloca i32, align 4
  store ptr %0, ptr %4, align 8, !tbaa !3
  store ptr %1, ptr %5, align 8, !tbaa !44
  store ptr %2, ptr %6, align 8, !tbaa !46
  %15 = load ptr, ptr %4, align 8
  call void @llvm.lifetime.start.p0(i64 8, ptr %7) #13
  %16 = call noundef i64 @_ZNK2cv4cuda6GpuMat8elemSizeEv(ptr noundef nonnull align 8 dereferenceable(64) %15)
  store i64 %16, ptr %7, align 8, !tbaa !18
  call void @llvm.lifetime.start.p0(i64 8, ptr %8) #13
  %17 = getelementptr inbounds nuw %"class.cv::cuda::GpuMat", ptr %15, i32 0, i32 4
  %18 = load ptr, ptr %17, align 8, !tbaa !21
  %19 = getelementptr inbounds nuw %"class.cv::cuda::GpuMat", ptr %15, i32 0, i32 6
  %20 = load ptr, ptr %19, align 8, !tbaa !23
  %21 = ptrtoint ptr %18 to i64
  %22 = ptrtoint ptr %20 to i64
  %23 = sub i64 %21, %22
  store i64 %23, ptr %8, align 8, !tbaa !18
  call void @llvm.lifetime.start.p0(i64 8, ptr %9) #13
  %24 = getelementptr inbounds nuw %"class.cv::cuda::GpuMat", ptr %15, i32 0, i32 7
  %25 = load ptr, ptr %24, align 8, !tbaa !24
  %26 = getelementptr inbounds nuw %"class.cv::cuda::GpuMat", ptr %15, i32 0, i32 6
  %27 = load ptr, ptr %26, align 8, !tbaa !23
  %28 = ptrtoint ptr %25 to i64
  %29 = ptrtoint ptr %27 to i64
  %30 = sub i64 %28, %29
  store i64 %30, ptr %9, align 8, !tbaa !18
  %31 = load i64, ptr %8, align 8, !tbaa !18
  %32 = icmp eq i64 %31, 0
  br i1 %32, label %33, label %38

33:                                               ; preds = %3
  %34 = load ptr, ptr %6, align 8, !tbaa !46
  %35 = getelementptr inbounds nuw %"class.cv::Point_", ptr %34, i32 0, i32 1
  store i32 0, ptr %35, align 4, !tbaa !48
  %36 = load ptr, ptr %6, align 8, !tbaa !46
  %37 = getelementptr inbounds nuw %"class.cv::Point_", ptr %36, i32 0, i32 0
  store i32 0, ptr %37, align 4, !tbaa !50
  br label %60

38:                                               ; preds = %3
  %39 = load i64, ptr %8, align 8, !tbaa !18
  %40 = getelementptr inbounds nuw %"class.cv::cuda::GpuMat", ptr %15, i32 0, i32 3
  %41 = load i64, ptr %40, align 8, !tbaa !17
  %42 = udiv i64 %39, %41
  %43 = trunc i64 %42 to i32
  %44 = load ptr, ptr %6, align 8, !tbaa !46
  %45 = getelementptr inbounds nuw %"class.cv::Point_", ptr %44, i32 0, i32 1
  store i32 %43, ptr %45, align 4, !tbaa !48
  %46 = load i64, ptr %8, align 8, !tbaa !18
  %47 = getelementptr inbounds nuw %"class.cv::cuda::GpuMat", ptr %15, i32 0, i32 3
  %48 = load i64, ptr %47, align 8, !tbaa !17
  %49 = load ptr, ptr %6, align 8, !tbaa !46
  %50 = getelementptr inbounds nuw %"class.cv::Point_", ptr %49, i32 0, i32 1
  %51 = load i32, ptr %50, align 4, !tbaa !48
  %52 = sext i32 %51 to i64
  %53 = mul i64 %48, %52
  %54 = sub i64 %46, %53
  %55 = load i64, ptr %7, align 8, !tbaa !18
  %56 = udiv i64 %54, %55
  %57 = trunc i64 %56 to i32
  %58 = load ptr, ptr %6, align 8, !tbaa !46
  %59 = getelementptr inbounds nuw %"class.cv::Point_", ptr %58, i32 0, i32 0
  store i32 %57, ptr %59, align 4, !tbaa !50
  br label %60

60:                                               ; preds = %38, %33
  call void @llvm.lifetime.start.p0(i64 8, ptr %10) #13
  %61 = load ptr, ptr %6, align 8, !tbaa !46
  %62 = getelementptr inbounds nuw %"class.cv::Point_", ptr %61, i32 0, i32 0
  %63 = load i32, ptr %62, align 4, !tbaa !50
  %64 = getelementptr inbounds nuw %"class.cv::cuda::GpuMat", ptr %15, i32 0, i32 2
  %65 = load i32, ptr %64, align 8, !tbaa !16
  %66 = add nsw i32 %63, %65
  %67 = sext i32 %66 to i64
  %68 = load i64, ptr %7, align 8, !tbaa !18
  %69 = mul i64 %67, %68
  store i64 %69, ptr %10, align 8, !tbaa !18
  call void @llvm.lifetime.start.p0(i64 4, ptr %11) #13
  %70 = load i64, ptr %9, align 8, !tbaa !18
  %71 = load i64, ptr %10, align 8, !tbaa !18
  %72 = sub i64 %70, %71
  %73 = getelementptr inbounds nuw %"class.cv::cuda::GpuMat", ptr %15, i32 0, i32 3
  %74 = load i64, ptr %73, align 8, !tbaa !17
  %75 = udiv i64 %72, %74
  %76 = add i64 %75, 1
  %77 = trunc i64 %76 to i32
  store i32 %77, ptr %11, align 4, !tbaa !15
  call void @llvm.lifetime.start.p0(i64 4, ptr %12) #13
  %78 = load ptr, ptr %6, align 8, !tbaa !46
  %79 = getelementptr inbounds nuw %"class.cv::Point_", ptr %78, i32 0, i32 1
  %80 = load i32, ptr %79, align 4, !tbaa !48
  %81 = getelementptr inbounds nuw %"class.cv::cuda::GpuMat", ptr %15, i32 0, i32 1
  %82 = load i32, ptr %81, align 4, !tbaa !8
  %83 = add nsw i32 %80, %82
  store i32 %83, ptr %12, align 4, !tbaa !15
  %84 = call noundef nonnull align 4 dereferenceable(4) ptr @_ZSt3maxIiERKT_S2_S2_(ptr noundef nonnull align 4 dereferenceable(4) %11, ptr noundef nonnull align 4 dereferenceable(4) %12)
  %85 = load i32, ptr %84, align 4, !tbaa !15
  %86 = load ptr, ptr %5, align 8, !tbaa !44
  %87 = getelementptr inbounds nuw %"class.cv::Size_", ptr %86, i32 0, i32 1
  store i32 %85, ptr %87, align 4, !tbaa !26
  call void @llvm.lifetime.end.p0(i64 4, ptr %12) #13
  call void @llvm.lifetime.end.p0(i64 4, ptr %11) #13
  call void @llvm.lifetime.start.p0(i64 4, ptr %13) #13
  %88 = load i64, ptr %9, align 8, !tbaa !18
  %89 = getelementptr inbounds nuw %"class.cv::cuda::GpuMat", ptr %15, i32 0, i32 3
  %90 = load i64, ptr %89, align 8, !tbaa !17
  %91 = load ptr, ptr %5, align 8, !tbaa !44
  %92 = getelementptr inbounds nuw %"class.cv::Size_", ptr %91, i32 0, i32 1
  %93 = load i32, ptr %92, align 4, !tbaa !26
  %94 = sub nsw i32 %93, 1
  %95 = sext i32 %94 to i64
  %96 = mul i64 %90, %95
  %97 = sub i64 %88, %96
  %98 = load i64, ptr %7, align 8, !tbaa !18
  %99 = udiv i64 %97, %98
  %100 = trunc i64 %99 to i32
  store i32 %100, ptr %13, align 4, !tbaa !15
  call void @llvm.lifetime.start.p0(i64 4, ptr %14) #13
  %101 = load ptr, ptr %6, align 8, !tbaa !46
  %102 = getelementptr inbounds nuw %"class.cv::Point_", ptr %101, i32 0, i32 0
  %103 = load i32, ptr %102, align 4, !tbaa !50
  %104 = getelementptr inbounds nuw %"class.cv::cuda::GpuMat", ptr %15, i32 0, i32 2
  %105 = load i32, ptr %104, align 8, !tbaa !16
  %106 = add nsw i32 %103, %105
  store i32 %106, ptr %14, align 4, !tbaa !15
  %107 = call noundef nonnull align 4 dereferenceable(4) ptr @_ZSt3maxIiERKT_S2_S2_(ptr noundef nonnull align 4 dereferenceable(4) %13, ptr noundef nonnull align 4 dereferenceable(4) %14)
  %108 = load i32, ptr %107, align 4, !tbaa !15
  %109 = load ptr, ptr %5, align 8, !tbaa !44
  %110 = getelementptr inbounds nuw %"class.cv::Size_", ptr %109, i32 0, i32 0
  store i32 %108, ptr %110, align 4, !tbaa !28
  call void @llvm.lifetime.end.p0(i64 4, ptr %14) #13
  call void @llvm.lifetime.end.p0(i64 4, ptr %13) #13
  call void @llvm.lifetime.end.p0(i64 8, ptr %10) #13
  call void @llvm.lifetime.end.p0(i64 8, ptr %9) #13
  call void @llvm.lifetime.end.p0(i64 8, ptr %8) #13
  call void @llvm.lifetime.end.p0(i64 8, ptr %7) #13
  ret void
}

; Function Attrs: inlinehint mustprogress nounwind uwtable
define linkonce_odr hidden void @_ZN2cv6Point_IiEC2Ev(ptr noundef nonnull align 4 dereferenceable(8) %0) unnamed_addr #2 comdat align 2 {
  %2 = alloca ptr, align 8
  store ptr %0, ptr %2, align 8, !tbaa !46
  %3 = load ptr, ptr %2, align 8
  %4 = getelementptr inbounds nuw %"class.cv::Point_", ptr %3, i32 0, i32 0
  store i32 0, ptr %4, align 4, !tbaa !50
  %5 = getelementptr inbounds nuw %"class.cv::Point_", ptr %3, i32 0, i32 1
  store i32 0, ptr %5, align 4, !tbaa !48
  ret void
}

; Function Attrs: inlinehint mustprogress nounwind uwtable
define linkonce_odr hidden void @_ZN2cv5Size_IiEC2Ev(ptr noundef nonnull align 4 dereferenceable(8) %0) unnamed_addr #2 comdat align 2 {
  %2 = alloca ptr, align 8
  store ptr %0, ptr %2, align 8, !tbaa !44
  %3 = load ptr, ptr %2, align 8
  %4 = getelementptr inbounds nuw %"class.cv::Size_", ptr %3, i32 0, i32 0
  store i32 0, ptr %4, align 4, !tbaa !28
  %5 = getelementptr inbounds nuw %"class.cv::Size_", ptr %3, i32 0, i32 1
  store i32 0, ptr %5, align 4, !tbaa !26
  ret void
}

; Function Attrs: mustprogress uwtable
define noundef nonnull align 8 dereferenceable(64) ptr @_ZN2cv4cuda6GpuMat9adjustROIEiiii(ptr noundef nonnull align 8 dereferenceable(64) %0, i32 noundef %1, i32 noundef %2, i32 noundef %3, i32 noundef %4) #0 align 2 {
  %6 = alloca ptr, align 8
  %7 = alloca i32, align 4
  %8 = alloca i32, align 4
  %9 = alloca i32, align 4
  %10 = alloca i32, align 4
  %11 = alloca %"class.cv::Size_", align 4
  %12 = alloca %"class.cv::Point_", align 4
  %13 = alloca i64, align 8
  %14 = alloca i32, align 4
  %15 = alloca i32, align 4
  %16 = alloca i32, align 4
  %17 = alloca i32, align 4
  %18 = alloca i32, align 4
  %19 = alloca i32, align 4
  %20 = alloca i32, align 4
  %21 = alloca i32, align 4
  %22 = alloca i32, align 4
  %23 = alloca i32, align 4
  store ptr %0, ptr %6, align 8, !tbaa !3
  store i32 %1, ptr %7, align 4, !tbaa !15
  store i32 %2, ptr %8, align 4, !tbaa !15
  store i32 %3, ptr %9, align 4, !tbaa !15
  store i32 %4, ptr %10, align 4, !tbaa !15
  %24 = load ptr, ptr %6, align 8
  call void @llvm.lifetime.start.p0(i64 8, ptr %11) #13
  call void @_ZN2cv5Size_IiEC2Ev(ptr noundef nonnull align 4 dereferenceable(8) %11)
  call void @llvm.lifetime.start.p0(i64 8, ptr %12) #13
  call void @_ZN2cv6Point_IiEC2Ev(ptr noundef nonnull align 4 dereferenceable(8) %12)
  call void @_ZNK2cv4cuda6GpuMat9locateROIERNS_5Size_IiEERNS_6Point_IiEE(ptr noundef nonnull align 8 dereferenceable(64) %24, ptr noundef nonnull align 4 dereferenceable(8) %11, ptr noundef nonnull align 4 dereferenceable(8) %12)
  call void @llvm.lifetime.start.p0(i64 8, ptr %13) #13
  %25 = call noundef i64 @_ZNK2cv4cuda6GpuMat8elemSizeEv(ptr noundef nonnull align 8 dereferenceable(64) %24)
  store i64 %25, ptr %13, align 8, !tbaa !18
  call void @llvm.lifetime.start.p0(i64 4, ptr %14) #13
  call void @llvm.lifetime.start.p0(i64 4, ptr %15) #13
  %26 = getelementptr inbounds nuw %"class.cv::Point_", ptr %12, i32 0, i32 1
  %27 = load i32, ptr %26, align 4, !tbaa !48
  %28 = load i32, ptr %7, align 4, !tbaa !15
  %29 = sub nsw i32 %27, %28
  store i32 %29, ptr %15, align 4, !tbaa !15
  call void @llvm.lifetime.start.p0(i64 4, ptr %16) #13
  store i32 0, ptr %16, align 4, !tbaa !15
  %30 = call noundef nonnull align 4 dereferenceable(4) ptr @_ZSt3maxIiERKT_S2_S2_(ptr noundef nonnull align 4 dereferenceable(4) %15, ptr noundef nonnull align 4 dereferenceable(4) %16)
  %31 = load i32, ptr %30, align 4, !tbaa !15
  call void @llvm.lifetime.end.p0(i64 4, ptr %16) #13
  call void @llvm.lifetime.end.p0(i64 4, ptr %15) #13
  store i32 %31, ptr %14, align 4, !tbaa !15
  call void @llvm.lifetime.start.p0(i64 4, ptr %17) #13
  call void @llvm.lifetime.start.p0(i64 4, ptr %18) #13
  %32 = getelementptr inbounds nuw %"class.cv::Point_", ptr %12, i32 0, i32 1
  %33 = load i32, ptr %32, align 4, !tbaa !48
  %34 = getelementptr inbounds nuw %"class.cv::cuda::GpuMat", ptr %24, i32 0, i32 1
  %35 = load i32, ptr %34, align 4, !tbaa !8
  %36 = add nsw i32 %33, %35
  %37 = load i32, ptr %8, align 4, !tbaa !15
  %38 = add nsw i32 %36, %37
  store i32 %38, ptr %18, align 4, !tbaa !15
  %39 = getelementptr inbounds nuw %"class.cv::Size_", ptr %11, i32 0, i32 1
  %40 = call noundef nonnull align 4 dereferenceable(4) ptr @_ZSt3minIiERKT_S2_S2_(ptr noundef nonnull align 4 dereferenceable(4) %18, ptr noundef nonnull align 4 dereferenceable(4) %39)
  %41 = load i32, ptr %40, align 4, !tbaa !15
  call void @llvm.lifetime.end.p0(i64 4, ptr %18) #13
  store i32 %41, ptr %17, align 4, !tbaa !15
  call void @llvm.lifetime.start.p0(i64 4, ptr %19) #13
  call void @llvm.lifetime.start.p0(i64 4, ptr %20) #13
  %42 = getelementptr inbounds nuw %"class.cv::Point_", ptr %12, i32 0, i32 0
  %43 = load i32, ptr %42, align 4, !tbaa !50
  %44 = load i32, ptr %9, align 4, !tbaa !15
  %45 = sub nsw i32 %43, %44
  store i32 %45, ptr %20, align 4, !tbaa !15
  call void @llvm.lifetime.start.p0(i64 4, ptr %21) #13
  store i32 0, ptr %21, align 4, !tbaa !15
  %46 = call noundef nonnull align 4 dereferenceable(4) ptr @_ZSt3maxIiERKT_S2_S2_(ptr noundef nonnull align 4 dereferenceable(4) %20, ptr noundef nonnull align 4 dereferenceable(4) %21)
  %47 = load i32, ptr %46, align 4, !tbaa !15
  call void @llvm.lifetime.end.p0(i64 4, ptr %21) #13
  call void @llvm.lifetime.end.p0(i64 4, ptr %20) #13
  store i32 %47, ptr %19, align 4, !tbaa !15
  call void @llvm.lifetime.start.p0(i64 4, ptr %22) #13
  call void @llvm.lifetime.start.p0(i64 4, ptr %23) #13
  %48 = getelementptr inbounds nuw %"class.cv::Point_", ptr %12, i32 0, i32 0
  %49 = load i32, ptr %48, align 4, !tbaa !50
  %50 = getelementptr inbounds nuw %"class.cv::cuda::GpuMat", ptr %24, i32 0, i32 2
  %51 = load i32, ptr %50, align 8, !tbaa !16
  %52 = add nsw i32 %49, %51
  %53 = load i32, ptr %10, align 4, !tbaa !15
  %54 = add nsw i32 %52, %53
  store i32 %54, ptr %23, align 4, !tbaa !15
  %55 = getelementptr inbounds nuw %"class.cv::Size_", ptr %11, i32 0, i32 0
  %56 = call noundef nonnull align 4 dereferenceable(4) ptr @_ZSt3minIiERKT_S2_S2_(ptr noundef nonnull align 4 dereferenceable(4) %23, ptr noundef nonnull align 4 dereferenceable(4) %55)
  %57 = load i32, ptr %56, align 4, !tbaa !15
  call void @llvm.lifetime.end.p0(i64 4, ptr %23) #13
  store i32 %57, ptr %22, align 4, !tbaa !15
  %58 = load i32, ptr %14, align 4, !tbaa !15
  %59 = getelementptr inbounds nuw %"class.cv::Point_", ptr %12, i32 0, i32 1
  %60 = load i32, ptr %59, align 4, !tbaa !48
  %61 = sub nsw i32 %58, %60
  %62 = sext i32 %61 to i64
  %63 = getelementptr inbounds nuw %"class.cv::cuda::GpuMat", ptr %24, i32 0, i32 3
  %64 = load i64, ptr %63, align 8, !tbaa !17
  %65 = mul i64 %62, %64
  %66 = load i32, ptr %19, align 4, !tbaa !15
  %67 = getelementptr inbounds nuw %"class.cv::Point_", ptr %12, i32 0, i32 0
  %68 = load i32, ptr %67, align 4, !tbaa !50
  %69 = sub nsw i32 %66, %68
  %70 = sext i32 %69 to i64
  %71 = load i64, ptr %13, align 8, !tbaa !18
  %72 = mul i64 %70, %71
  %73 = add i64 %65, %72
  %74 = getelementptr inbounds nuw %"class.cv::cuda::GpuMat", ptr %24, i32 0, i32 4
  %75 = load ptr, ptr %74, align 8, !tbaa !21
  %76 = getelementptr inbounds nuw i8, ptr %75, i64 %73
  store ptr %76, ptr %74, align 8, !tbaa !21
  %77 = load i32, ptr %17, align 4, !tbaa !15
  %78 = load i32, ptr %14, align 4, !tbaa !15
  %79 = sub nsw i32 %77, %78
  %80 = getelementptr inbounds nuw %"class.cv::cuda::GpuMat", ptr %24, i32 0, i32 1
  store i32 %79, ptr %80, align 4, !tbaa !8
  %81 = load i32, ptr %22, align 4, !tbaa !15
  %82 = load i32, ptr %19, align 4, !tbaa !15
  %83 = sub nsw i32 %81, %82
  %84 = getelementptr inbounds nuw %"class.cv::cuda::GpuMat", ptr %24, i32 0, i32 2
  store i32 %83, ptr %84, align 8, !tbaa !16
  call void @_ZN2cv4cuda6GpuMat20updateContinuityFlagEv(ptr noundef nonnull align 8 dereferenceable(64) %24)
  call void @llvm.lifetime.end.p0(i64 4, ptr %22) #13
  call void @llvm.lifetime.end.p0(i64 4, ptr %19) #13
  call void @llvm.lifetime.end.p0(i64 4, ptr %17) #13
  call void @llvm.lifetime.end.p0(i64 4, ptr %14) #13
  call void @llvm.lifetime.end.p0(i64 8, ptr %13) #13
  call void @llvm.lifetime.end.p0(i64 8, ptr %12) #13
  call void @llvm.lifetime.end.p0(i64 8, ptr %11) #13
  ret ptr %24
}