; Function Attrs: mustprogress uwtable
define noundef nonnull align 8 dereferenceable(64) ptr @_ZN2cv4cuda6GpuMat9adjustROIEiiii(ptr noundef nonnull returned align 8 dereferenceable(64) %0, i32 noundef %1, i32 noundef %2, i32 noundef %3, i32 noundef %4) local_unnamed_addr #0 align 2 {
  %6 = alloca [2 x i32], align 4
  %7 = alloca [2 x i64], align 16
  %8 = load i32, ptr %0, align 8, !tbaa !17
  %9 = lshr i32 %8, 3
  %10 = and i32 %9, 511
  %11 = add nuw nsw i32 %10, 1
  %12 = shl i32 %8, 2
  %13 = and i32 %12, 28
  %14 = lshr i32 675553809, %13
  %15 = and i32 %14, 15
  %16 = mul nuw nsw i32 %15, %11
  %17 = zext nneg i32 %16 to i64
  %18 = getelementptr inbounds nuw i8, ptr %0, i64 24
  %19 = load ptr, ptr %18, align 8, !tbaa !18
  %20 = getelementptr inbounds nuw i8, ptr %0, i64 40
  %21 = load ptr, ptr %20, align 8, !tbaa !20
  %22 = ptrtoint ptr %21 to i64
  %23 = getelementptr inbounds nuw i8, ptr %0, i64 48
  %24 = load ptr, ptr %23, align 8, !tbaa !22
  %25 = icmp eq ptr %19, %21
  br i1 %25, label %26, label %27

26:                                               ; preds = %5
  %.phi.trans.insert.i = getelementptr inbounds nuw i8, ptr %0, i64 16
  %.pre.i = load i64, ptr %.phi.trans.insert.i, align 8, !tbaa !15
  br label %_ZNK2cv4cuda6GpuMat9locateROIERNS_5Size_IiEERNS_6Point_IiEE.exit

27:                                               ; preds = %5
  %28 = ptrtoint ptr %19 to i64
  %29 = sub i64 %28, %22
  %30 = getelementptr inbounds nuw i8, ptr %0, i64 16
  %31 = load i64, ptr %30, align 8, !tbaa !15
  %32 = udiv i64 %29, %31
  %33 = trunc i64 %32 to i32
  %sext.i = shl i64 %32, 32
  %34 = ashr exact i64 %sext.i, 32
  %35 = mul i64 %34, %31
  %36 = sub i64 %29, %35
  %37 = udiv i64 %36, %17
  %38 = trunc i64 %37 to i32
  br label %_ZNK2cv4cuda6GpuMat9locateROIERNS_5Size_IiEERNS_6Point_IiEE.exit

_ZNK2cv4cuda6GpuMat9locateROIERNS_5Size_IiEERNS_6Point_IiEE.exit: ; preds = %26, %27
  %39 = phi i64 [ %.pre.i, %26 ], [ %31, %27 ]
  %.sink.i = phi i32 [ 0, %26 ], [ %33, %27 ]
  %storemerge.i = phi i32 [ 0, %26 ], [ %38, %27 ]
  %40 = ptrtoint ptr %24 to i64
  %41 = sub i64 %40, %22
  %42 = getelementptr inbounds nuw i8, ptr %0, i64 8
  %43 = load i32, ptr %42, align 8, !tbaa !14
  %44 = add nsw i32 %43, %storemerge.i
  %45 = sext i32 %44 to i64
  %46 = mul nsw i64 %45, %17
  %47 = sub i64 %41, %46
  %48 = udiv i64 %47, %39
  %49 = trunc i64 %48 to i32
  %50 = add i32 %49, 1
  %51 = getelementptr inbounds nuw i8, ptr %0, i64 4
  %52 = load i32, ptr %51, align 4, !tbaa !3
  %53 = add nsw i32 %52, %.sink.i
  %.sroa.speculated24.i = tail call i32 @llvm.smax.i32(i32 %50, i32 %53)
  %54 = add nsw i32 %.sroa.speculated24.i, -1
  %55 = sext i32 %54 to i64
  %56 = mul i64 %39, %55
  %57 = sub i64 %41, %56
  %58 = udiv i64 %57, %17
  %59 = trunc i64 %58 to i32
  %.sroa.speculated.i = tail call i32 @llvm.smax.i32(i32 %44, i32 %59)
  %60 = sub nsw i32 %.sink.i, %1
  %.sroa.speculated26 = tail call i32 @llvm.smax.i32(i32 %60, i32 0)
  %61 = add nsw i32 %53, %2
  %.sroa.speculated22 = tail call i32 @llvm.smin.i32(i32 %.sroa.speculated24.i, i32 %61)
  %62 = sub nsw i32 %storemerge.i, %3
  %.sroa.speculated16 = tail call i32 @llvm.smax.i32(i32 %62, i32 0)
  %63 = add nsw i32 %44, %4
  %.sroa.speculated = tail call i32 @llvm.smin.i32(i32 %.sroa.speculated.i, i32 %63)
  %64 = sub nsw i32 %.sroa.speculated26, %.sink.i
  %65 = sext i32 %64 to i64
  %66 = mul i64 %39, %65
  %67 = sub nsw i32 %.sroa.speculated16, %storemerge.i
  %68 = sext i32 %67 to i64
  %69 = mul nsw i64 %68, %17
  %70 = getelementptr i8, ptr %19, i64 %66
  %71 = getelementptr i8, ptr %70, i64 %69
  store ptr %71, ptr %18, align 8, !tbaa !18
  %72 = sub nsw i32 %.sroa.speculated22, %.sroa.speculated26
  store i32 %72, ptr %51, align 4, !tbaa !3
  %73 = sub nsw i32 %.sroa.speculated, %.sroa.speculated16
  store i32 %73, ptr %42, align 8, !tbaa !14
  call void @llvm.lifetime.start.p0(i64 8, ptr nonnull %6) #15
  store i32 %72, ptr %6, align 4, !tbaa !13
  %74 = getelementptr inbounds nuw i8, ptr %6, i64 4
  store i32 %73, ptr %74, align 4, !tbaa !13
  call void @llvm.lifetime.start.p0(i64 16, ptr nonnull %7) #15
  store i64 %39, ptr %7, align 16, !tbaa !16
  %75 = getelementptr inbounds nuw i8, ptr %7, i64 8
  store i64 %17, ptr %75, align 8, !tbaa !16
  %76 = call noundef i32 @_ZN2cv20updateContinuityFlagEiiPKiPKm(i32 noundef %8, i32 noundef 2, ptr noundef nonnull %6, ptr noundef nonnull %7)
  store i32 %76, ptr %0, align 8, !tbaa !17
  call void @llvm.lifetime.end.p0(i64 16, ptr nonnull %7) #15
  call void @llvm.lifetime.end.p0(i64 8, ptr nonnull %6) #15
  ret ptr %0
}